target datalayout = "e-m:e-p270:32:32-p271:32:32-p272:64:64-i64:64-i128:128-f80:128-n8:16:32:64-S128"
target triple = "x86_64-pc-linux-gnu"

%struct.DdManager = type { %struct.DdNode, ptr, ptr, ptr, ptr, ptr, ptr, ptr, i32, i32, double, double, double, i32, i32, i32, i32, i32, i32, ptr, ptr, %struct.DdSubtable, i32, i32, i32, i32, i32, i32, i32, double, i32, i32, i32, ptr, i64, double, i32, ptr, ptr, ptr, ptr, ptr, ptr, ptr, i32, ptr, ptr, ptr, ptr, ptr, ptr, i32, i32, i32, double, i32, i32, i32, i32, double, double, i32, i32, i32, i32, i32, i32, i32, i32, i32, ptr, ptr, i32, i32, i32, i32, i32, i32, ptr, ptr, ptr, ptr, ptr, ptr, ptr, ptr, i32, i64, i64, i64, i32, i64, i64, double, double, double, double, double, double, i32, ptr, ptr, i64 }
%struct.DdNode = type { i32, i32, ptr, %union.anon, i64 }
%union.anon = type { %struct.DdChildren }
%struct.DdChildren = type { ptr, ptr }
%struct.DdSubtable = type { ptr, i32, i32, i32, i32, i32, i32, i32, i32, i32, i32, i32 }

; Function Attrs: nounwind uwtable
define ptr @Cudd_bddInterval(ptr noundef %0, i32 noundef %1, ptr noundef %2, i32 noundef %3, i32 noundef %4) #0 {
  %6 = alloca ptr, align 8
  %7 = alloca ptr, align 8
  %8 = alloca i32, align 4
  %9 = alloca ptr, align 8
  %10 = alloca i32, align 4
  %11 = alloca i32, align 4
  %12 = alloca ptr, align 8
  %13 = alloca ptr, align 8
  %14 = alloca ptr, align 8
  %15 = alloca ptr, align 8
  %16 = alloca ptr, align 8
  %17 = alloca i32, align 4
  %18 = alloca ptr, align 8
  %19 = alloca ptr, align 8
  store ptr %0, ptr %7, align 8
  store i32 %1, ptr %8, align 4
  store ptr %2, ptr %9, align 8
  store i32 %3, ptr %10, align 4
  store i32 %4, ptr %11, align 4
  %20 = load ptr, ptr %7, align 8
  %21 = getelementptr inbounds %struct.DdManager, ptr %20, i32 0, i32 1
  %22 = load ptr, ptr %21, align 8
  store ptr %22, ptr %12, align 8
  %23 = load ptr, ptr %12, align 8
  %24 = ptrtoint ptr %23 to i64
  %25 = xor i64 %24, 1
  %26 = inttoptr i64 %25 to ptr
  store ptr %26, ptr %13, align 8
  %27 = load ptr, ptr %12, align 8
  store ptr %27, ptr %15, align 8
  %28 = load ptr, ptr %15, align 8
  %29 = ptrtoint ptr %28 to i64
  %30 = and i64 %29, -2
  %31 = inttoptr i64 %30 to ptr
  %32 = getelementptr inbounds %struct.DdNode, ptr %31, i32 0, i32 1
  %33 = load i32, ptr %32, align 4
  %34 = add i32 %33, 1
  store i32 %34, ptr %32, align 4
  %35 = load ptr, ptr %12, align 8
  store ptr %35, ptr %16, align 8
  %36 = load ptr, ptr %16, align 8
  %37 = ptrtoint ptr %36 to i64
  %38 = and i64 %37, -2
  %39 = inttoptr i64 %38 to ptr
  %40 = getelementptr inbounds %struct.DdNode, ptr %39, i32 0, i32 1
  %41 = load i32, ptr %40, align 4
  %42 = add i32 %41, 1
  store i32 %42, ptr %40, align 4
  %43 = load i32, ptr %8, align 4
  %44 = sub nsw i32 %43, 1
  store i32 %44, ptr %17, align 4
  br label %45

45:                                               ; preds = %139, %5
  %46 = load i32, ptr %17, align 4
  %47 = icmp sge i32 %46, 0
  br i1 %47, label %48, label %142

48:                                               ; preds = %45
  %49 = load ptr, ptr %7, align 8
  %50 = load ptr, ptr %9, align 8
  %51 = load i32, ptr %17, align 4
  %52 = sext i32 %51 to i64
  %53 = getelementptr inbounds ptr, ptr %50, i64 %52
  %54 = load ptr, ptr %53, align 8
  %55 = load i32, ptr %10, align 4
  %56 = and i32 %55, 1
  %57 = icmp ne i32 %56, 0
  br i1 %57, label %58, label %60

58:                                               ; preds = %48
  %59 = load ptr, ptr %15, align 8
  br label %62

60:                                               ; preds = %48
  %61 = load ptr, ptr %12, align 8
  br label %62

62:                                               ; preds = %60, %58
  %63 = phi ptr [ %59, %58 ], [ %61, %60 ]
  %64 = load i32, ptr %10, align 4
  %65 = and i32 %64, 1
  %66 = icmp ne i32 %65, 0
  br i1 %66, label %67, label %69

67:                                               ; preds = %62
  %68 = load ptr, ptr %13, align 8
  br label %71

69:                                               ; preds = %62
  %70 = load ptr, ptr %15, align 8
  br label %71

71:                                               ; preds = %69, %67
  %72 = phi ptr [ %68, %67 ], [ %70, %69 ]
  %73 = call ptr @Cudd_bddIte(ptr noundef %49, ptr noundef %54, ptr noundef %63, ptr noundef %72)
  store ptr %73, ptr %18, align 8
  %74 = load ptr, ptr %18, align 8
  %75 = icmp eq ptr %74, null
  br i1 %75, label %76, label %81

76:                                               ; preds = %71
  %77 = load ptr, ptr %7, align 8
  %78 = load ptr, ptr %15, align 8
  call void @Cudd_IterDerefBdd(ptr noundef %77, ptr noundef %78)
  %79 = load ptr, ptr %7, align 8
  %80 = load ptr, ptr %16, align 8
  call void @Cudd_IterDerefBdd(ptr noundef %79, ptr noundef %80)
  store ptr null, ptr %6, align 8
  br label %174

81:                                               ; preds = %71
  %82 = load ptr, ptr %18, align 8
  %83 = ptrtoint ptr %82 to i64
  %84 = and i64 %83, -2
  %85 = inttoptr i64 %84 to ptr
  %86 = getelementptr inbounds %struct.DdNode, ptr %85, i32 0, i32 1
  %87 = load i32, ptr %86, align 4
  %88 = add i32 %87, 1
  store i32 %88, ptr %86, align 4
  %89 = load ptr, ptr %7, align 8
  %90 = load ptr, ptr %15, align 8
  call void @Cudd_IterDerefBdd(ptr noundef %89, ptr noundef %90)
  %91 = load ptr, ptr %18, align 8
  store ptr %91, ptr %15, align 8
  %92 = load i32, ptr %10, align 4
  %93 = lshr i32 %92, 1
  store i32 %93, ptr %10, align 4
  %94 = load ptr, ptr %7, align 8
  %95 = load ptr, ptr %9, align 8
  %96 = load i32, ptr %17, align 4
  %97 = sext i32 %96 to i64
  %98 = getelementptr inbounds ptr, ptr %95, i64 %97
  %99 = load ptr, ptr %98, align 8
  %100 = load i32, ptr %11, align 4
  %101 = and i32 %100, 1
  %102 = icmp ne i32 %101, 0
  br i1 %102, label %103, label %105

103:                                              ; preds = %81
  %104 = load ptr, ptr %16, align 8
  br label %107

105:                                              ; preds = %81
  %106 = load ptr, ptr %13, align 8
  br label %107

107:                                              ; preds = %105, %103
  %108 = phi ptr [ %104, %103 ], [ %106, %105 ]
  %109 = load i32, ptr %11, align 4
  %110 = and i32 %109, 1
  %111 = icmp ne i32 %110, 0
  br i1 %111, label %112, label %114

112:                                              ; preds = %107
  %113 = load ptr, ptr %12, align 8
  br label %116

114:                                              ; preds = %107
  %115 = load ptr, ptr %16, align 8
  br label %116

116:                                              ; preds = %114, %112
  %117 = phi ptr [ %113, %112 ], [ %115, %114 ]
  %118 = call ptr @Cudd_bddIte(ptr noundef %94, ptr noundef %99, ptr noundef %108, ptr noundef %117)
  store ptr %118, ptr %19, align 8
  %119 = load ptr, ptr %19, align 8
  %120 = icmp eq ptr %119, null
  br i1 %120, label %121, label %126

121:                                              ; preds = %116
  %122 = load ptr, ptr %7, align 8
  %123 = load ptr, ptr %15, align 8
  call void @Cudd_IterDerefBdd(ptr noundef %122, ptr noundef %123)
  %124 = load ptr, ptr %7, align 8
  %125 = load ptr, ptr %16, align 8
  call void @Cudd_IterDerefBdd(ptr noundef %124, ptr noundef %125)
  store ptr null, ptr %6, align 8
  br label %174

126:                                              ; preds = %116
  %127 = load ptr, ptr %19, align 8
  %128 = ptrtoint ptr %127 to i64
  %129 = and i64 %128, -2
  %130 = inttoptr i64 %129 to ptr
  %131 = getelementptr inbounds %struct.DdNode, ptr %130, i32 0, i32 1
  %132 = load i32, ptr %131, align 4
  %133 = add i32 %132, 1
  store i32 %133, ptr %131, align 4
  %134 = load ptr, ptr %7, align 8
  %135 = load ptr, ptr %16, align 8
  call void @Cudd_IterDerefBdd(ptr noundef %134, ptr noundef %135)
  %136 = load ptr, ptr %19, align 8
  store ptr %136, ptr %16, align 8
  %137 = load i32, ptr %11, align 4
  %138 = lshr i32 %137, 1
  store i32 %138, ptr %11, align 4
  br label %139

139:                                              ; preds = %126
  %140 = load i32, ptr %17, align 4
  %141 = add nsw i32 %140, -1
  store i32 %141, ptr %17, align 4
  br label %45, !llvm.loop !16

142:                                              ; preds = %45
  %143 = load ptr, ptr %7, align 8
  %144 = load ptr, ptr %15, align 8
  %145 = load ptr, ptr %16, align 8
  %146 = call ptr @Cudd_bddAnd(ptr noundef %143, ptr noundef %144, ptr noundef %145)
  store ptr %146, ptr %14, align 8
  %147 = load ptr, ptr %14, align 8
  %148 = icmp eq ptr %147, null
  br i1 %148, label %149, label %154

149:                                              ; preds = %142
  %150 = load ptr, ptr %7, align 8
  %151 = load ptr, ptr %15, align 8
  call void @Cudd_IterDerefBdd(ptr noundef %150, ptr noundef %151)
  %152 = load ptr, ptr %7, align 8
  %153 = load ptr, ptr %16, align 8
  call void @Cudd_IterDerefBdd(ptr noundef %152, ptr noundef %153)
  store ptr null, ptr %6, align 8
  br label %174

154:                                              ; preds = %142
  %155 = load ptr, ptr %14, align 8
  %156 = ptrtoint ptr %155 to i64
  %157 = and i64 %156, -2
  %158 = inttoptr i64 %157 to ptr
  %159 = getelementptr inbounds %struct.DdNode, ptr %158, i32 0, i32 1
  %160 = load i32, ptr %159, align 4
  %161 = add i32 %160, 1
  store i32 %161, ptr %159, align 4
  %162 = load ptr, ptr %7, align 8
  %163 = load ptr, ptr %15, align 8
  call void @Cudd_IterDerefBdd(ptr noundef %162, ptr noundef %163)
  %164 = load ptr, ptr %7, align 8
  %165 = load ptr, ptr %16, align 8
  call void @Cudd_IterDerefBdd(ptr noundef %164, ptr noundef %165)
  %166 = load ptr, ptr %14, align 8
  %167 = ptrtoint ptr %166 to i64
  %168 = and i64 %167, -2
  %169 = inttoptr i64 %168 to ptr
  %170 = getelementptr inbounds %struct.DdNode, ptr %169, i32 0, i32 1
  %171 = load i32, ptr %170, align 4
  %172 = add i32 %171, -1
  store i32 %172, ptr %170, align 4
  %173 = load ptr, ptr %14, align 8
  store ptr %173, ptr %6, align 8
  br label %174

174:                                              ; preds = %154, %149, %121, %76
  %175 = load ptr, ptr %6, align 8
  ret ptr %175
}