; Function Attrs: nounwind uwtable
define ptr @Cudd_bddInterval(ptr noundef %0, i32 noundef %1, ptr noundef readonly captures(none) %2, i32 noundef %3, i32 noundef %4) local_unnamed_addr #0 {
  %6 = getelementptr inbounds nuw i8, ptr %0, i64 40
  %7 = load ptr, ptr %6, align 8
  %8 = ptrtoint ptr %7 to i64
  %9 = xor i64 %8, 1
  %10 = inttoptr i64 %9 to ptr
  %11 = and i64 %8, -2
  %12 = inttoptr i64 %11 to ptr
  %13 = getelementptr inbounds nuw i8, ptr %12, i64 4
  %14 = load i32, ptr %13, align 4
  %15 = add i32 %14, 2
  store i32 %15, ptr %13, align 4
  %16 = icmp sgt i32 %1, 0
  br i1 %16, label %.lr.ph.preheader, label %._crit_edge

.lr.ph.preheader:                                 ; preds = %5
  %17 = zext nneg i32 %1 to i64
  br label %.lr.ph

.lr.ph:                                           ; preds = %.lr.ph.preheader, %40
  %indvars.iv = phi i64 [ %17, %.lr.ph.preheader ], [ %indvars.iv.next, %40 ]
  %.06280 = phi i32 [ %3, %.lr.ph.preheader ], [ %41, %40 ]
  %.06479 = phi ptr [ %7, %.lr.ph.preheader ], [ %37, %40 ]
  %.06578 = phi ptr [ %7, %.lr.ph.preheader ], [ %23, %40 ]
  %.06677 = phi i32 [ %4, %.lr.ph.preheader ], [ %48, %40 ]
  %indvars.iv.next = add nsw i64 %indvars.iv, -1
  %18 = getelementptr inbounds nuw ptr, ptr %2, i64 %indvars.iv.next
  %19 = load ptr, ptr %18, align 8
  %20 = and i32 %.06280, 1
  %.not = icmp eq i32 %20, 0
  %21 = select i1 %.not, ptr %7, ptr %.06578
  %22 = select i1 %.not, ptr %.06578, ptr %10
  %23 = tail call ptr @Cudd_bddIte(ptr noundef %0, ptr noundef %19, ptr noundef %21, ptr noundef %22) #6
  %24 = icmp eq ptr %23, null
  br i1 %24, label %25, label %26

25:                                               ; preds = %.lr.ph
  tail call void @Cudd_IterDerefBdd(ptr noundef %0, ptr noundef %.06578) #6
  tail call void @Cudd_IterDerefBdd(ptr noundef %0, ptr noundef %.06479) #6
  br label %62

26:                                               ; preds = %.lr.ph
  %27 = ptrtoint ptr %23 to i64
  %28 = and i64 %27, -2
  %29 = inttoptr i64 %28 to ptr
  %30 = getelementptr inbounds nuw i8, ptr %29, i64 4
  %31 = load i32, ptr %30, align 4
  %32 = add i32 %31, 1
  store i32 %32, ptr %30, align 4
  tail call void @Cudd_IterDerefBdd(ptr noundef %0, ptr noundef %.06578) #6
  %33 = load ptr, ptr %18, align 8
  %34 = and i32 %.06677, 1
  %.not70 = icmp eq i32 %34, 0
  %35 = select i1 %.not70, ptr %10, ptr %.06479
  %36 = select i1 %.not70, ptr %.06479, ptr %7
  %37 = tail call ptr @Cudd_bddIte(ptr noundef %0, ptr noundef %33, ptr noundef %35, ptr noundef %36) #6
  %38 = icmp eq ptr %37, null
  br i1 %38, label %39, label %40

39:                                               ; preds = %26
  tail call void @Cudd_IterDerefBdd(ptr noundef %0, ptr noundef nonnull %23) #6
  tail call void @Cudd_IterDerefBdd(ptr noundef %0, ptr noundef %.06479) #6
  br label %62

40:                                               ; preds = %26
  %41 = lshr i32 %.06280, 1
  %42 = ptrtoint ptr %37 to i64
  %43 = and i64 %42, -2
  %44 = inttoptr i64 %43 to ptr
  %45 = getelementptr inbounds nuw i8, ptr %44, i64 4
  %46 = load i32, ptr %45, align 4
  %47 = add i32 %46, 1
  store i32 %47, ptr %45, align 4
  tail call void @Cudd_IterDerefBdd(ptr noundef %0, ptr noundef %.06479) #6
  %48 = lshr i32 %.06677, 1
  %49 = icmp samesign ugt i64 %indvars.iv, 1
  br i1 %49, label %.lr.ph, label %._crit_edge, !llvm.loop !16

._crit_edge:                                      ; preds = %40, %5
  %.065.lcssa = phi ptr [ %7, %5 ], [ %23, %40 ]
  %.064.lcssa = phi ptr [ %7, %5 ], [ %37, %40 ]
  %50 = tail call ptr @Cudd_bddAnd(ptr noundef %0, ptr noundef %.065.lcssa, ptr noundef %.064.lcssa) #6
  %51 = icmp eq ptr %50, null
  br i1 %51, label %52, label %53

52:                                               ; preds = %._crit_edge
  tail call void @Cudd_IterDerefBdd(ptr noundef %0, ptr noundef %.065.lcssa) #6
  tail call void @Cudd_IterDerefBdd(ptr noundef %0, ptr noundef %.064.lcssa) #6
  br label %62

53:                                               ; preds = %._crit_edge
  %54 = ptrtoint ptr %50 to i64
  %55 = and i64 %54, -2
  %56 = inttoptr i64 %55 to ptr
  %57 = getelementptr inbounds nuw i8, ptr %56, i64 4
  %58 = load i32, ptr %57, align 4
  %59 = add i32 %58, 1
  store i32 %59, ptr %57, align 4
  tail call void @Cudd_IterDerefBdd(ptr noundef %0, ptr noundef %.065.lcssa) #6
  tail call void @Cudd_IterDerefBdd(ptr noundef %0, ptr noundef %.064.lcssa) #6
  %60 = load i32, ptr %57, align 4
  %61 = add i32 %60, -1
  store i32 %61, ptr %57, align 4
  br label %62

62:                                               ; preds = %53, %52, %39, %25
  %.0 = phi ptr [ null, %25 ], [ null, %39 ], [ null, %52 ], [ %50, %53 ]
  ret ptr %.0
}